target datalayout = "e-m:e-p270:32:32-p271:32:32-p272:64:64-i64:64-i128:128-f80:128-n8:16:32:64-S128"
target triple = "x86_64-pc-linux-gnu"

%class.CryptData = type { [4 x %"struct.CryptData::KDF3CacheItem"], i32, [4 x i8], [4 x %"struct.CryptData::KDF5CacheItem"], i32, i32, %class.Rijndael, [256 x i32], [256 x i8], [4 x i32], [3 x i8], [4 x i16], [4 x i8] }
%"struct.CryptData::KDF3CacheItem" = type { %class.SecPassword, [8 x i8], [16 x i8], [16 x i8], i8, [7 x i8] }
%class.SecPassword = type <{ %"class.std::vector", i8, [7 x i8] }>
%"class.std::vector" = type { %"struct.std::_Vector_base" }
%"struct.std::_Vector_base" = type { %"struct.std::_Vector_base<wchar_t, std::allocator<wchar_t>>::_Vector_impl" }
%"struct.std::_Vector_base<wchar_t, std::allocator<wchar_t>>::_Vector_impl" = type { %"struct.std::_Vector_base<wchar_t, std::allocator<wchar_t>>::_Vector_impl_data" }
%"struct.std::_Vector_base<wchar_t, std::allocator<wchar_t>>::_Vector_impl_data" = type { ptr, ptr, ptr }
%"struct.CryptData::KDF5CacheItem" = type { %class.SecPassword, [16 x i8], [32 x i8], i32, [32 x i8], [32 x i8], [4 x i8] }
%class.Rijndael = type { i8, i32, [16 x i8], [15 x [4 x [4 x i8]]] }

; Function Attrs: mustprogress uwtable
define void @_ZN9CryptData8SetKey15EPKc(ptr noundef nonnull align 8 dereferenceable(2516) %0, ptr noundef %1) #1 align 2 {
  %3 = alloca ptr, align 8
  %4 = alloca ptr, align 8
  %5 = alloca i32, align 4
  %6 = alloca i64, align 8
  %7 = alloca i8, align 1
  store ptr %0, ptr %3, align 8
  store ptr %1, ptr %4, align 8
  %8 = load ptr, ptr %3, align 8
  %9 = getelementptr inbounds %class.CryptData, ptr %8, i32 0, i32 7
  %10 = getelementptr inbounds [256 x i32], ptr %9, i64 0, i64 0
  call void @_Z9InitCRC32Pj(ptr noundef %10)
  %11 = load ptr, ptr %4, align 8
  %12 = load ptr, ptr %4, align 8
  %13 = call i64 @strlen(ptr noundef %12) #12
  %14 = call noundef i32 @_Z5CRC32jPKvm(i32 noundef -1, ptr noundef %11, i64 noundef %13)
  store i32 %14, ptr %5, align 4
  %15 = load i32, ptr %5, align 4
  %16 = and i32 %15, 65535
  %17 = trunc i32 %16 to i16
  %18 = getelementptr inbounds %class.CryptData, ptr %8, i32 0, i32 11
  %19 = getelementptr inbounds [4 x i16], ptr %18, i64 0, i64 0
  store i16 %17, ptr %19, align 4
  %20 = load i32, ptr %5, align 4
  %21 = lshr i32 %20, 16
  %22 = and i32 %21, 65535
  %23 = trunc i32 %22 to i16
  %24 = getelementptr inbounds %class.CryptData, ptr %8, i32 0, i32 11
  %25 = getelementptr inbounds [4 x i16], ptr %24, i64 0, i64 1
  store i16 %23, ptr %25, align 2
  %26 = getelementptr inbounds %class.CryptData, ptr %8, i32 0, i32 11
  %27 = getelementptr inbounds [4 x i16], ptr %26, i64 0, i64 3
  store i16 0, ptr %27, align 2
  %28 = getelementptr inbounds %class.CryptData, ptr %8, i32 0, i32 11
  %29 = getelementptr inbounds [4 x i16], ptr %28, i64 0, i64 2
  store i16 0, ptr %29, align 4
  store i64 0, ptr %6, align 8
  br label %30

30:                                               ; preds = %71, %2
  %31 = load ptr, ptr %4, align 8
  %32 = load i64, ptr %6, align 8
  %33 = getelementptr inbounds i8, ptr %31, i64 %32
  %34 = load i8, ptr %33, align 1
  %35 = sext i8 %34 to i32
  %36 = icmp ne i32 %35, 0
  br i1 %36, label %37, label %74

37:                                               ; preds = %30
  %38 = load ptr, ptr %4, align 8
  %39 = load i64, ptr %6, align 8
  %40 = getelementptr inbounds i8, ptr %38, i64 %39
  %41 = load i8, ptr %40, align 1
  store i8 %41, ptr %7, align 1
  %42 = load i8, ptr %7, align 1
  %43 = zext i8 %42 to i32
  %44 = getelementptr inbounds %class.CryptData, ptr %8, i32 0, i32 7
  %45 = load i8, ptr %7, align 1
  %46 = zext i8 %45 to i64
  %47 = getelementptr inbounds [256 x i32], ptr %44, i64 0, i64 %46
  %48 = load i32, ptr %47, align 4
  %49 = xor i32 %43, %48
  %50 = getelementptr inbounds %class.CryptData, ptr %8, i32 0, i32 11
  %51 = getelementptr inbounds [4 x i16], ptr %50, i64 0, i64 2
  %52 = load i16, ptr %51, align 4
  %53 = zext i16 %52 to i32
  %54 = xor i32 %53, %49
  %55 = trunc i32 %54 to i16
  store i16 %55, ptr %51, align 4
  %56 = load i8, ptr %7, align 1
  %57 = zext i8 %56 to i32
  %58 = getelementptr inbounds %class.CryptData, ptr %8, i32 0, i32 7
  %59 = load i8, ptr %7, align 1
  %60 = zext i8 %59 to i64
  %61 = getelementptr inbounds [256 x i32], ptr %58, i64 0, i64 %60
  %62 = load i32, ptr %61, align 4
  %63 = lshr i32 %62, 16
  %64 = add i32 %57, %63
  %65 = getelementptr inbounds %class.CryptData, ptr %8, i32 0, i32 11
  %66 = getelementptr inbounds [4 x i16], ptr %65, i64 0, i64 3
  %67 = load i16, ptr %66, align 2
  %68 = zext i16 %67 to i32
  %69 = add i32 %68, %64
  %70 = trunc i32 %69 to i16
  store i16 %70, ptr %66, align 2
  br label %71

71:                                               ; preds = %37
  %72 = load i64, ptr %6, align 8
  %73 = add i64 %72, 1
  store i64 %73, ptr %6, align 8
  br label %30, !llvm.loop !6

74:                                               ; preds = %30
  ret void
}

; Function Attrs: mustprogress nounwind uwtable
define void @_ZN9CryptData8SetKey13EPKc(ptr noundef nonnull align 8 dereferenceable(2516) %0, ptr noundef %1) #0 align 2 {
  %3 = alloca ptr, align 8
  %4 = alloca ptr, align 8
  %5 = alloca i64, align 8
  %6 = alloca i8, align 1
  store ptr %0, ptr %3, align 8
  store ptr %1, ptr %4, align 8
  %7 = load ptr, ptr %3, align 8
  %8 = getelementptr inbounds %class.CryptData, ptr %7, i32 0, i32 10
  %9 = getelementptr inbounds [3 x i8], ptr %8, i64 0, i64 2
  store i8 0, ptr %9, align 2
  %10 = getelementptr inbounds %class.CryptData, ptr %7, i32 0, i32 10
  %11 = getelementptr inbounds [3 x i8], ptr %10, i64 0, i64 1
  store i8 0, ptr %11, align 1
  %12 = getelementptr inbounds %class.CryptData, ptr %7, i32 0, i32 10
  %13 = getelementptr inbounds [3 x i8], ptr %12, i64 0, i64 0
  store i8 0, ptr %13, align 8
  store i64 0, ptr %5, align 8
  br label %14

14:                                               ; preds = %64, %2
  %15 = load ptr, ptr %4, align 8
  %16 = load i64, ptr %5, align 8
  %17 = getelementptr inbounds i8, ptr %15, i64 %16
  %18 = load i8, ptr %17, align 1
  %19 = sext i8 %18 to i32
  %20 = icmp ne i32 %19, 0
  br i1 %20, label %21, label %67

21:                                               ; preds = %14
  %22 = load ptr, ptr %4, align 8
  %23 = load i64, ptr %5, align 8
  %24 = getelementptr inbounds i8, ptr %22, i64 %23
  %25 = load i8, ptr %24, align 1
  store i8 %25, ptr %6, align 1
  %26 = load i8, ptr %6, align 1
  %27 = zext i8 %26 to i32
  %28 = getelementptr inbounds %class.CryptData, ptr %7, i32 0, i32 10
  %29 = getelementptr inbounds [3 x i8], ptr %28, i64 0, i64 0
  %30 = load i8, ptr %29, align 8
  %31 = zext i8 %30 to i32
  %32 = add nsw i32 %31, %27
  %33 = trunc i32 %32 to i8
  store i8 %33, ptr %29, align 8
  %34 = load i8, ptr %6, align 1
  %35 = zext i8 %34 to i32
  %36 = getelementptr inbounds %class.CryptData, ptr %7, i32 0, i32 10
  %37 = getelementptr inbounds [3 x i8], ptr %36, i64 0, i64 1
  %38 = load i8, ptr %37, align 1
  %39 = zext i8 %38 to i32
  %40 = xor i32 %39, %35
  %41 = trunc i32 %40 to i8
  store i8 %41, ptr %37, align 1
  %42 = load i8, ptr %6, align 1
  %43 = zext i8 %42 to i32
  %44 = getelementptr inbounds %class.CryptData, ptr %7, i32 0, i32 10
  %45 = getelementptr inbounds [3 x i8], ptr %44, i64 0, i64 2
  %46 = load i8, ptr %45, align 2
  %47 = zext i8 %46 to i32
  %48 = add nsw i32 %47, %43
  %49 = trunc i32 %48 to i8
  store i8 %49, ptr %45, align 2
  %50 = getelementptr inbounds %class.CryptData, ptr %7, i32 0, i32 10
  %51 = getelementptr inbounds [3 x i8], ptr %50, i64 0, i64 2
  %52 = load i8, ptr %51, align 2
  %53 = zext i8 %52 to i32
  %54 = shl i32 %53, 1
  %55 = getelementptr inbounds %class.CryptData, ptr %7, i32 0, i32 10
  %56 = getelementptr inbounds [3 x i8], ptr %55, i64 0, i64 2
  %57 = load i8, ptr %56, align 2
  %58 = zext i8 %57 to i32
  %59 = ashr i32 %58, 7
  %60 = or i32 %54, %59
  %61 = trunc i32 %60 to i8
  %62 = getelementptr inbounds %class.CryptData, ptr %7, i32 0, i32 10
  %63 = getelementptr inbounds [3 x i8], ptr %62, i64 0, i64 2
  store i8 %61, ptr %63, align 2
  br label %64

64:                                               ; preds = %21
  %65 = load i64, ptr %5, align 8
  %66 = add i64 %65, 1
  store i64 %66, ptr %5, align 8
  br label %14, !llvm.loop !4

67:                                               ; preds = %14
  ret void
}

; Function Attrs: mustprogress nounwind uwtable
define linkonce_odr noundef zeroext i1 @_ZN11SecPassword5IsSetEv(ptr noundef nonnull align 8 dereferenceable(25) %0) #0 comdat align 2 {
  %2 = alloca ptr, align 8
  store ptr %0, ptr %2, align 8
  %3 = load ptr, ptr %2, align 8
  %4 = getelementptr inbounds %class.SecPassword, ptr %3, i32 0, i32 1
  %5 = load i8, ptr %4, align 8
  %6 = trunc i8 %5 to i1
  ret i1 %6
}

; Function Attrs: mustprogress uwtable
define noundef zeroext i1 @_ZN9CryptData12SetCryptKeysEb12CRYPT_METHODP11SecPasswordPKhS4_jPhS5_(ptr noundef nonnull align 8 dereferenceable(2516) %0, i1 noundef zeroext %1, i32 noundef %2, ptr noundef %3, ptr noundef %4, ptr noundef %5, i32 noundef %6, ptr noundef %7, ptr noundef %8) #1 align 2 {
  %10 = alloca i1, align 1
  %11 = alloca ptr, align 8
  %12 = alloca i8, align 1
  %13 = alloca i32, align 4
  %14 = alloca ptr, align 8
  %15 = alloca ptr, align 8
  %16 = alloca ptr, align 8
  %17 = alloca i32, align 4
  %18 = alloca ptr, align 8
  %19 = alloca ptr, align 8
  %20 = alloca [512 x i32], align 16
  %21 = alloca [512 x i8], align 16
  store ptr %0, ptr %11, align 8
  %22 = zext i1 %1 to i8
  store i8 %22, ptr %12, align 1
  store i32 %2, ptr %13, align 4
  store ptr %3, ptr %14, align 8
  store ptr %4, ptr %15, align 8
  store ptr %5, ptr %16, align 8
  store i32 %6, ptr %17, align 4
  store ptr %7, ptr %18, align 8
  store ptr %8, ptr %19, align 8
  %23 = load ptr, ptr %11, align 8
  %24 = load i32, ptr %13, align 4
  %25 = icmp eq i32 %24, 0
  br i1 %25, label %29, label %26

26:                                               ; preds = %9
  %27 = load ptr, ptr %14, align 8
  %28 = call noundef zeroext i1 @_ZN11SecPassword5IsSetEv(ptr noundef nonnull align 8 dereferenceable(25) %27)
  br i1 %28, label %30, label %29

29:                                               ; preds = %26, %9
  store i1 false, ptr %10, align 1
  br label %66

30:                                               ; preds = %26
  %31 = load i32, ptr %13, align 4
  %32 = getelementptr inbounds %class.CryptData, ptr %23, i32 0, i32 5
  store i32 %31, ptr %32, align 4
  %33 = load ptr, ptr %14, align 8
  %34 = getelementptr inbounds [512 x i32], ptr %20, i64 0, i64 0
  call void @_ZN11SecPassword3GetEPwm(ptr noundef nonnull align 8 dereferenceable(25) %33, ptr noundef %34, i64 noundef 512)
  %35 = getelementptr inbounds [512 x i32], ptr %20, i64 0, i64 127
  store i32 0, ptr %35, align 4
  %36 = getelementptr inbounds [512 x i32], ptr %20, i64 0, i64 0
  %37 = getelementptr inbounds [512 x i8], ptr %21, i64 0, i64 0
  %38 = call noundef zeroext i1 @_Z10WideToCharPKwPcm(ptr noundef %36, ptr noundef %37, i64 noundef 512)
  %39 = getelementptr inbounds [512 x i8], ptr %21, i64 0, i64 127
  store i8 0, ptr %39, align 1
  %40 = load i32, ptr %13, align 4
  switch i32 %40, label %63 [
    i32 1, label %41
    i32 2, label %43
    i32 3, label %45
    i32 4, label %47
    i32 5, label %53
  ]

41:                                               ; preds = %30
  %42 = getelementptr inbounds [512 x i8], ptr %21, i64 0, i64 0
  call void @_ZN9CryptData8SetKey13EPKc(ptr noundef nonnull align 8 dereferenceable(2516) %23, ptr noundef %42)
  br label %63

43:                                               ; preds = %30
  %44 = getelementptr inbounds [512 x i8], ptr %21, i64 0, i64 0
  call void @_ZN9CryptData8SetKey15EPKc(ptr noundef nonnull align 8 dereferenceable(2516) %23, ptr noundef %44)
  br label %63

45:                                               ; preds = %30
  %46 = getelementptr inbounds [512 x i8], ptr %21, i64 0, i64 0
  call void @_ZN9CryptData8SetKey20EPKc(ptr noundef nonnull align 8 dereferenceable(2516) %23, ptr noundef %46)
  br label %63

47:                                               ; preds = %30
  %48 = load i8, ptr %12, align 1
  %49 = trunc i8 %48 to i1
  %50 = load ptr, ptr %14, align 8
  %51 = getelementptr inbounds [512 x i32], ptr %20, i64 0, i64 0
  %52 = load ptr, ptr %15, align 8
  call void @_ZN9CryptData8SetKey30EbP11SecPasswordPKwPKh(ptr noundef nonnull align 8 dereferenceable(2516) %23, i1 noundef zeroext %49, ptr noundef %50, ptr noundef %51, ptr noundef %52)
  br label %63

53:                                               ; preds = %30
  %54 = load i8, ptr %12, align 1
  %55 = trunc i8 %54 to i1
  %56 = load ptr, ptr %14, align 8
  %57 = getelementptr inbounds [512 x i32], ptr %20, i64 0, i64 0
  %58 = load ptr, ptr %15, align 8
  %59 = load ptr, ptr %16, align 8
  %60 = load i32, ptr %17, align 4
  %61 = load ptr, ptr %18, align 8
  %62 = load ptr, ptr %19, align 8
  call void @_ZN9CryptData8SetKey50EbP11SecPasswordPKwPKhS5_jPhS6_(ptr noundef nonnull align 8 dereferenceable(2516) %23, i1 noundef zeroext %55, ptr noundef %56, ptr noundef %57, ptr noundef %58, ptr noundef %59, i32 noundef %60, ptr noundef %61, ptr noundef %62)
  br label %63

63:                                               ; preds = %53, %47, %45, %43, %41, %30
  %64 = getelementptr inbounds [512 x i8], ptr %21, i64 0, i64 0
  call void @_Z9cleandataPvm(ptr noundef %64, i64 noundef 512)
  %65 = getelementptr inbounds [512 x i32], ptr %20, i64 0, i64 0
  call void @_Z9cleandataPvm(ptr noundef %65, i64 noundef 2048)
  store i1 true, ptr %10, align 1
  br label %66

66:                                               ; preds = %63, %29
  %67 = load i1, ptr %10, align 1
  ret i1 %67
}