; Function Attrs: mustprogress uwtable
define noundef zeroext i1 @_ZN9CryptData12SetCryptKeysEb12CRYPT_METHODP11SecPasswordPKhS4_jPhS5_(ptr noundef nonnull align 8 dereferenceable(2516) %0, i1 noundef zeroext %1, i32 noundef %2, ptr noundef %3, ptr noundef %4, ptr noundef %5, i32 noundef %6, ptr noundef %7, ptr noundef %8) local_unnamed_addr #1 align 2 {
  %10 = alloca [512 x i32], align 16
  %11 = alloca [512 x i8], align 16
  %12 = icmp eq i32 %2, 0
  br i1 %12, label %70, label %13

13:                                               ; preds = %9
  %14 = getelementptr inbounds nuw i8, ptr %3, i64 24
  %15 = load i8, ptr %14, align 8
  %16 = trunc i8 %15 to i1
  br i1 %16, label %17, label %70

17:                                               ; preds = %13
  %18 = getelementptr inbounds nuw i8, ptr %0, i64 940
  store i32 %2, ptr %18, align 4
  call void @_ZN11SecPassword3GetEPwm(ptr noundef nonnull align 8 dereferenceable(25) %3, ptr noundef nonnull %10, i64 noundef 512)
  %19 = getelementptr inbounds nuw i8, ptr %10, i64 508
  store i32 0, ptr %19, align 4
  %20 = call noundef zeroext i1 @_Z10WideToCharPKwPcm(ptr noundef nonnull %10, ptr noundef nonnull %11, i64 noundef 512)
  %21 = getelementptr inbounds nuw i8, ptr %11, i64 127
  store i8 0, ptr %21, align 1
  switch i32 %2, label %_ZN9CryptData8SetKey13EPKc.exit [
    i32 1, label %22
    i32 2, label %38
    i32 3, label %66
    i32 4, label %67
    i32 5, label %68
  ]

22:                                               ; preds = %17
  %23 = getelementptr inbounds nuw i8, ptr %0, i64 2504
  %24 = getelementptr inbounds nuw i8, ptr %0, i64 2506
  store i8 0, ptr %24, align 2
  %25 = getelementptr inbounds nuw i8, ptr %0, i64 2505
  store i8 0, ptr %25, align 1
  store i8 0, ptr %23, align 8
  %26 = load i8, ptr %11, align 16
  %.not10.i = icmp eq i8 %26, 0
  br i1 %.not10.i, label %_ZN9CryptData8SetKey13EPKc.exit, label %.lr.ph.i

.lr.ph.i:                                         ; preds = %22, %.lr.ph.i
  %27 = phi i8 [ %37, %.lr.ph.i ], [ %26, %22 ]
  %.011.i = phi i64 [ %35, %.lr.ph.i ], [ 0, %22 ]
  %28 = phi i8 [ %31, %.lr.ph.i ], [ 0, %22 ]
  %29 = phi i8 [ %32, %.lr.ph.i ], [ 0, %22 ]
  %30 = phi i8 [ %34, %.lr.ph.i ], [ 0, %22 ]
  %31 = add i8 %28, %27
  %32 = xor i8 %29, %27
  %33 = add i8 %30, %27
  %34 = call i8 @llvm.fshl.i8(i8 %33, i8 %33, i8 1)
  %35 = add i64 %.011.i, 1
  %36 = getelementptr inbounds i8, ptr %11, i64 %35
  %37 = load i8, ptr %36, align 1
  %.not.i = icmp eq i8 %37, 0
  br i1 %.not.i, label %_ZN9CryptData8SetKey13EPKc.exit.loopexit, label %.lr.ph.i, !llvm.loop !4

38:                                               ; preds = %17
  %39 = getelementptr inbounds nuw i8, ptr %0, i64 1208
  call void @_Z9InitCRC32Pj(ptr noundef nonnull %39)
  %40 = call i64 @strlen(ptr noundef nonnull dereferenceable(1) %11) #19
  %41 = call noundef i32 @_Z5CRC32jPKvm(i32 noundef -1, ptr noundef nonnull %11, i64 noundef %40)
  %42 = trunc i32 %41 to i16
  %43 = getelementptr inbounds nuw i8, ptr %0, i64 2508
  store i16 %42, ptr %43, align 4
  %44 = lshr i32 %41, 16
  %45 = trunc nuw i32 %44 to i16
  %46 = getelementptr inbounds nuw i8, ptr %0, i64 2510
  store i16 %45, ptr %46, align 2
  %47 = getelementptr inbounds nuw i8, ptr %0, i64 2514
  store i16 0, ptr %47, align 2
  %48 = getelementptr inbounds nuw i8, ptr %0, i64 2512
  store i16 0, ptr %48, align 8
  %49 = load i8, ptr %11, align 16
  %.not14.i = icmp eq i8 %49, 0
  br i1 %.not14.i, label %_ZN9CryptData8SetKey13EPKc.exit, label %.lr.ph.i17

.lr.ph.i17:                                       ; preds = %38, %.lr.ph.i17
  %50 = phi i8 [ %65, %.lr.ph.i17 ], [ %49, %38 ]
  %.015.i = phi i64 [ %63, %.lr.ph.i17 ], [ 0, %38 ]
  %51 = phi i32 [ %58, %.lr.ph.i17 ], [ 0, %38 ]
  %52 = phi i16 [ %62, %.lr.ph.i17 ], [ 0, %38 ]
  %53 = zext i8 %50 to i32
  %54 = zext i8 %50 to i64
  %55 = getelementptr inbounds nuw [256 x i32], ptr %39, i64 0, i64 %54
  %56 = load i32, ptr %55, align 4
  %57 = xor i32 %51, %53
  %58 = xor i32 %57, %56
  %59 = lshr i32 %56, 16
  %60 = add nuw nsw i32 %59, %53
  %61 = trunc i32 %60 to i16
  %62 = add i16 %52, %61
  %63 = add i64 %.015.i, 1
  %64 = getelementptr inbounds i8, ptr %11, i64 %63
  %65 = load i8, ptr %64, align 1
  %.not.i18 = icmp eq i8 %65, 0
  br i1 %.not.i18, label %_ZN9CryptData8SetKey13EPKc.exit.loopexit19, label %.lr.ph.i17, !llvm.loop !6

66:                                               ; preds = %17
  call void @_ZN9CryptData8SetKey20EPKc(ptr noundef nonnull align 8 dereferenceable(2516) %0, ptr noundef nonnull %11)
  br label %_ZN9CryptData8SetKey13EPKc.exit

67:                                               ; preds = %17
  call void @_ZN9CryptData8SetKey30EbP11SecPasswordPKwPKh(ptr noundef nonnull align 8 dereferenceable(2516) %0, i1 noundef zeroext %1, ptr noundef nonnull %3, ptr noundef nonnull %10, ptr noundef %4)
  br label %_ZN9CryptData8SetKey13EPKc.exit

68:                                               ; preds = %17
  call void @_ZN9CryptData8SetKey50EbP11SecPasswordPKwPKhS5_jPhS6_(ptr noundef nonnull align 8 dereferenceable(2516) %0, i1 noundef zeroext %1, ptr noundef nonnull %3, ptr noundef nonnull %10, ptr noundef %4, ptr noundef %5, i32 noundef %6, ptr noundef %7, ptr noundef %8)
  br label %_ZN9CryptData8SetKey13EPKc.exit

_ZN9CryptData8SetKey13EPKc.exit.loopexit:         ; preds = %.lr.ph.i
  store i8 %31, ptr %23, align 8
  store i8 %32, ptr %25, align 1
  store i8 %34, ptr %24, align 2
  br label %_ZN9CryptData8SetKey13EPKc.exit

_ZN9CryptData8SetKey13EPKc.exit.loopexit19:       ; preds = %.lr.ph.i17
  %69 = trunc i32 %58 to i16
  store i16 %69, ptr %48, align 8
  store i16 %62, ptr %47, align 2
  br label %_ZN9CryptData8SetKey13EPKc.exit

_ZN9CryptData8SetKey13EPKc.exit:                  ; preds = %_ZN9CryptData8SetKey13EPKc.exit.loopexit19, %_ZN9CryptData8SetKey13EPKc.exit.loopexit, %38, %22, %68, %67, %66, %17
  call void @_Z9cleandataPvm(ptr noundef nonnull %11, i64 noundef 512)
  call void @_Z9cleandataPvm(ptr noundef nonnull %10, i64 noundef 2048)
  br label %70

70:                                               ; preds = %9, %13, %_ZN9CryptData8SetKey13EPKc.exit
  %.0 = phi i1 [ true, %_ZN9CryptData8SetKey13EPKc.exit ], [ false, %13 ], [ false, %9 ]
  ret i1 %.0
}